(dp1
S'files'
p2
(lp3
(dp4
S'name'
p5
VIMG_0227.JPG
p6
sS'mtime'
p7
cdatetime
datetime
p8
(S'\x07\xd9\x05\x08\x00\x01\x1b\x00\x00\x00'
tRp9
sS'path'
p10
V/home/paul/pics
p11
sS'gdocs_able_to_upload'
p12
I00
sS'full_path'
p13
V/home/paul/pics/IMG_0227.JPG
p14
sS'size'
p15
F466090
sa(dp16
g5
VDVD_Rip2.jpg
p17
sg7
g8
(S'\x07\xd9\x05\x0e\x13(6\x00\x00\x00'
tRp18
sg10
V/home/paul/pics
p19
sg12
I00
sg13
V/home/paul/pics/DVD_Rip2.jpg
p20
sg15
F232250
sa(dp21
g5
VIMG_0217.JPG
p22
sg7
g8
(S'\x07\xd9\x05\x08\x00\x01\x17\x00\x00\x00'
tRp23
sg10
V/home/paul/pics
p24
sg12
I00
sg13
V/home/paul/pics/IMG_0217.JPG
p25
sg15
F450769
sa(dp26
g5
VIMG_0218.JPG
p27
sg7
g8
(S'\x07\xd9\x05\x08\x00\x01\x18\x00\x00\x00'
tRp28
sg10
V/home/paul/pics
p29
sg12
I00
sg13
V/home/paul/pics/IMG_0218.JPG
p30
sg15
F432727
sa(dp31
g5
VIMG_0234.jpg
p32
sg7
g8
(S'\x07\xd9\x05\x08\x00\x01"\x00\x00\x00'
tRp33
sg10
V/home/paul/pics
p34
sg12
I00
sg13
V/home/paul/pics/IMG_0234.jpg
p35
sg15
F40898
sa(dp36
g5
VIMG_0223.jpg
p37
sg7
g8
(S'\x07\xd9\x05\x08\x00\x01\x1c\x00\x00\x00'
tRp38
sg10
V/home/paul/pics
p39
sg12
I00
sg13
V/home/paul/pics/IMG_0223.jpg
p40
sg15
F51759
sa(dp41
g5
VIMG_0225.JPG
p42
sg7
g8
(S'\x07\xd9\x05\x08\x00\x01\x1a\x00\x00\x00'
tRp43
sg10
V/home/paul/pics
p44
sg12
I00
sg13
V/home/paul/pics/IMG_0225.JPG
p45
sg15
F399730
sa(dp46
g5
VIMG_0231.JPG
p47
sg7
g8
(S'\x07\xd9\x05\x08\x00\x01\x1e\x00\x00\x00'
tRp48
sg10
V/home/paul/pics
p49
sg12
I00
sg13
V/home/paul/pics/IMG_0231.JPG
p50
sg15
F457761
sa(dp51
g5
Vdownload.gif
p52
sg7
g8
(S'\x07\xd9\x05\x0c\x01\x0b\x00\x00\x00\x00'
tRp53
sg10
V/home/paul/pics
p54
sg12
I00
sg13
V/home/paul/pics/download.gif
p55
sg15
F189
sa(dp56
g5
VIMG_0233.JPG
p57
sg7
g8
(S'\x07\xd9\x05\x08\x00\x01\x1f\x00\x00\x00'
tRp58
sg10
V/home/paul/pics
p59
sg12
I00
sg13
V/home/paul/pics/IMG_0233.JPG
p60
sg15
F458678
sa(dp61
g5
VIMG_0231.jpg
p62
sg7
g8
(S'\x07\xd9\x05\x08\x00\x01!\x00\x00\x00'
tRp63
sg10
V/home/paul/pics
p64
sg12
I00
sg13
V/home/paul/pics/IMG_0231.jpg
p65
sg15
F66348
sa(dp66
g5
VIMG_0230.JPG
p67
sg7
g8
(S'\x07\xd9\x05\x08\x00\x01\x1d\x00\x00\x00'
tRp68
sg10
V/home/paul/pics
p69
sg12
I00
sg13
V/home/paul/pics/IMG_0230.JPG
p70
sg15
F334186
sa(dp71
g5
VIMG_0229.jpg
p72
sg7
g8
(S'\x07\xd9\x05\x08\x00\x01 \x00\x00\x00'
tRp73
sg10
V/home/paul/pics
p74
sg12
I00
sg13
V/home/paul/pics/IMG_0229.jpg
p75
sg15
F54790
sa(dp76
g5
VIMG_0221.jpg
p77
sg7
g8
(S'\x07\xd9\x05\x08\x00\x01\x1a\x00\x00\x00'
tRp78
sg10
V/home/paul/pics
p79
sg12
I00
sg13
V/home/paul/pics/IMG_0221.jpg
p80
sg15
F35844
sa(dp81
g5
VIMG_0220.JPG
p82
sg7
g8
(S'\x07\xd9\x05\x08\x00\x01\x1a\x00\x00\x00'
tRp83
sg10
V/home/paul/pics
p84
sg12
I00
sg13
V/home/paul/pics/IMG_0220.JPG
p85
sg15
F457748
sa(dp86
g5
VIMG_0223.JPG
p87
sg7
g8
(S'\x07\xd9\x05\x08\x00\x01\x18\x00\x00\x00'
tRp88
sg10
V/home/paul/pics
p89
sg12
I00
sg13
V/home/paul/pics/IMG_0223.JPG
p90
sg15
F421445
sa(dp91
g5
VIMG_0229.JPG
p92
sg7
g8
(S'\x07\xd9\x05\x08\x00\x01\x1d\x00\x00\x00'
tRp93
sg10
V/home/paul/pics
p94
sg12
I00
sg13
V/home/paul/pics/IMG_0229.JPG
p95
sg15
F439653
sa(dp96
g5
VIMG_0232.jpg
p97
sg7
g8
(S'\x07\xd9\x05\x08\x00\x01!\x00\x00\x00'
tRp98
sg10
V/home/paul/pics
p99
sg12
I00
sg13
V/home/paul/pics/IMG_0232.jpg
p100
sg15
F47767
sa(dp101
g5
VIMG_0219.JPG
p102
sg7
g8
(S'\x07\xd9\x05\x08\x00\x01\x1a\x00\x00\x00'
tRp103
sg10
V/home/paul/pics
p104
sg12
I00
sg13
V/home/paul/pics/IMG_0219.JPG
p105
sg15
F482583
sa(dp106
g5
VIMG_0232.JPG
p107
sg7
g8
(S'\x07\xd9\x05\x08\x00\x01"\x00\x00\x00'
tRp108
sg10
V/home/paul/pics
p109
sg12
I00
sg13
V/home/paul/pics/IMG_0232.JPG
p110
sg15
F588258
sa(dp111
g5
VIMG_0230.jpg
p112
sg7
g8
(S'\x07\xd9\x05\x08\x00\x01 \x00\x00\x00'
tRp113
sg10
V/home/paul/pics
p114
sg12
I00
sg13
V/home/paul/pics/IMG_0230.jpg
p115
sg15
F35727
sa(dp116
g5
VIMG_0221.JPG
p117
sg7
g8
(S'\x07\xd9\x05\x08\x00\x01\x1c\x00\x00\x00'
tRp118
sg10
V/home/paul/pics
p119
sg12
I00
sg13
V/home/paul/pics/IMG_0221.JPG
p120
sg15
F501120
sa(dp121
g5
VIMG_0233.jpg
p122
sg7
g8
(S'\x07\xd9\x05\x08\x00\x01"\x00\x00\x00'
tRp123
sg10
V/home/paul/pics
p124
sg12
I00
sg13
V/home/paul/pics/IMG_0233.jpg
p125
sg15
F59196
sa(dp126
g5
VIMG_0237.jpg
p127
sg7
g8
(S'\x07\xd9\x05\x08\x00\x01$\x00\x00\x00'
tRp128
sg10
V/home/paul/pics
p129
sg12
I00
sg13
V/home/paul/pics/IMG_0237.jpg
p130
sg15
F53563
sa(dp131
g5
VIMG_0236.jpg
p132
sg7
g8
(S'\x07\xd9\x05\x08\x00\x01#\x00\x00\x00'
tRp133
sg10
V/home/paul/pics
p134
sg12
I00
sg13
V/home/paul/pics/IMG_0236.jpg
p135
sg15
F62612
sa(dp136
g5
Vtrinity-nmapscreen-hd-cropscale-418x250-1.jpg
p137
sg7
g8
(S'\x07\xd9\x05\x0e\x16"/\x00\x00\x00'
tRp138
sg10
V/home/paul/pics
p139
sg12
I00
sg13
V/home/paul/pics/trinity-nmapscreen-hd-cropscale-418x250-1.jpg
p140
sg15
F36801
sa(dp141
g5
VIMG_0225.jpg
p142
sg7
g8
(S'\x07\xd9\x05\x08\x00\x01\x1d\x00\x00\x00'
tRp143
sg10
V/home/paul/pics
p144
sg12
I00
sg13
V/home/paul/pics/IMG_0225.jpg
p145
sg15
F44137
sa(dp146
g5
VIMG_0224.JPG
p147
sg7
g8
(S'\x07\xd9\x05\x08\x00\x01\x18\x00\x00\x00'
tRp148
sg10
V/home/paul/pics
p149
sg12
I00
sg13
V/home/paul/pics/IMG_0224.JPG
p150
sg15
F427181
sa(dp151
g5
VIMG_0235.jpg
p152
sg7
g8
(S'\x07\xd9\x05\x08\x00\x01#\x00\x00\x00'
tRp153
sg10
V/home/paul/pics
p154
sg12
I00
sg13
V/home/paul/pics/IMG_0235.jpg
p155
sg15
F60610
sa(dp156
g5
VIMG_0216.JPG
p157
sg7
g8
(S'\x07\xd9\x05\x08\x00\x01\x16\x00\x00\x00'
tRp158
sg10
V/home/paul/pics
p159
sg12
I00
sg13
V/home/paul/pics/IMG_0216.JPG
p160
sg15
F434869
sa(dp161
g5
VIMG_0218.jpg
p162
sg7
g8
(S'\x07\xd9\x05\x08\x00\x01\x16\x00\x00\x00'
tRp163
sg10
V/home/paul/pics
p164
sg12
I00
sg13
V/home/paul/pics/IMG_0218.jpg
p165
sg15
F29128
sa(dp166
g5
VIMG_0228.JPG
p167
sg7
g8
(S'\x07\xd9\x05\x08\x00\x01\x1c\x00\x00\x00'
tRp168
sg10
V/home/paul/pics
p169
sg12
I00
sg13
V/home/paul/pics/IMG_0228.JPG
p170
sg15
F474587
sa(dp171
g5
VIMG_0236.JPG
p172
sg7
g8
(S'\x07\xd9\x05\x08\x00\x01!\x00\x00\x00'
tRp173
sg10
V/home/paul/pics
p174
sg12
I00
sg13
V/home/paul/pics/IMG_0236.JPG
p175
sg15
F492019
sa(dp176
g5
VIMG_0228.jpg
p177
sg7
g8
(S'\x07\xd9\x05\x08\x00\x01\x1f\x00\x00\x00'
tRp178
sg10
V/home/paul/pics
p179
sg12
I00
sg13
V/home/paul/pics/IMG_0228.jpg
p180
sg15
F58502
sa(dp181
g5
Vexternal.png
p182
sg7
g8
(S'\x07\xd9\x05\x0c\x01\x0b\x00\x00\x00\x00'
tRp183
sg10
V/home/paul/pics
p184
sg12
I00
sg13
V/home/paul/pics/external.png
p185
sg15
F165
sa(dp186
g5
VIMG_0214.jpg
p187
sg7
g8
(S'\x07\xd9\x05\x08\x00\x01\x13\x00\x00\x00'
tRp188
sg10
V/home/paul/pics
p189
sg12
I00
sg13
V/home/paul/pics/IMG_0214.jpg
p190
sg15
F40331
sa(dp191
g5
VIMG_0213.jpg
p192
sg7
g8
(S'\x07\xd9\x05\x08\x00\x01\x13\x00\x00\x00'
tRp193
sg10
V/home/paul/pics
p194
sg12
I00
sg13
V/home/paul/pics/IMG_0213.jpg
p195
sg15
F52224
sa(dp196
g5
VIMG_0224.jpg
p197
sg7
g8
(S'\x07\xd9\x05\x08\x00\x01\x1c\x00\x00\x00'
tRp198
sg10
V/home/paul/pics
p199
sg12
I00
sg13
V/home/paul/pics/IMG_0224.jpg
p200
sg15
F51550
sa(dp201
g5
VIMG_0220.jpg
p202
sg7
g8
(S'\x07\xd9\x05\x08\x00\x01\x18\x00\x00\x00'
tRp203
sg10
V/home/paul/pics
p204
sg12
I00
sg13
V/home/paul/pics/IMG_0220.jpg
p205
sg15
F33976
sa(dp206
g5
Vtrinity-nmapscreen-hd-cropscale-418x250.jpg
p207
sg7
g8
(S'\x07\xd9\x05\x0e\x16!8\x00\x00\x00'
tRp208
sg10
V/home/paul/pics
p209
sg12
I00
sg13
V/home/paul/pics/trinity-nmapscreen-hd-cropscale-418x250.jpg
p210
sg15
F36801
sa(dp211
g5
VIMG_0219.jpg
p212
sg7
g8
(S'\x07\xd9\x05\x08\x00\x01\x18\x00\x00\x00'
tRp213
sg10
V/home/paul/pics
p214
sg12
I00
sg13
V/home/paul/pics/IMG_0219.jpg
p215
sg15
F33100
sa(dp216
g5
VIMG_0216.jpg
p217
sg7
g8
(S'\x07\xd9\x05\x08\x00\x01\x14\x00\x00\x00'
tRp218
sg10
V/home/paul/pics
p219
sg12
I00
sg13
V/home/paul/pics/IMG_0216.jpg
p220
sg15
F28494
sa(dp221
g5
VIMG_0222.JPG
p222
sg7
g8
(S'\x07\xd9\x05\x08\x00\x01\x16\x00\x00\x00'
tRp223
sg10
V/home/paul/pics
p224
sg12
I00
sg13
V/home/paul/pics/IMG_0222.JPG
p225
sg15
F443653
sa(dp226
g5
Vmatrix-poster-jsolomon-small.jpg
p227
sg7
g8
(S'\x07\xd9\x05\x0f\x0e\x06\x03\x00\x00\x00'
tRp228
sg10
V/home/paul/pics
p229
sg12
I00
sg13
V/home/paul/pics/matrix-poster-jsolomon-small.jpg
p230
sg15
F1164911
sa(dp231
g5
VIMG_0235.JPG
p232
sg7
g8
(S'\x07\xd9\x05\x08\x00\x01$\x00\x00\x00'
tRp233
sg10
V/home/paul/pics
p234
sg12
I00
sg13
V/home/paul/pics/IMG_0235.JPG
p235
sg15
F827529
sa(dp236
g5
Vgit-gui.ico
p237
sg7
g8
(S'\x07\xd9\x05\t\x0e\x15\x17\x00\x00\x00'
tRp238
sg10
V/home/paul/pics
p239
sg12
I00
sg13
V/home/paul/pics/git-gui.ico
p240
sg15
F3638
sa(dp241
g5
VIMG_0222.jpg
p242
sg7
g8
(S'\x07\xd9\x05\x08\x00\x01\x1a\x00\x00\x00'
tRp243
sg10
V/home/paul/pics
p244
sg12
I00
sg13
V/home/paul/pics/IMG_0222.jpg
p245
sg15
F47260
sa(dp246
g5
VIMG_0237.JPG
p247
sg7
g8
(S'\x07\xd9\x05\x08\x00\x01!\x00\x00\x00'
tRp248
sg10
V/home/paul/pics
p249
sg12
I00
sg13
V/home/paul/pics/IMG_0237.JPG
p250
sg15
F438160
sa(dp251
g5
VIMG_0217.jpg
p252
sg7
g8
(S'\x07\xd9\x05\x08\x00\x01\x16\x00\x00\x00'
tRp253
sg10
V/home/paul/pics
p254
sg12
I00
sg13
V/home/paul/pics/IMG_0217.jpg
p255
sg15
F30235
sa(dp256
g5
VIMG_0234.JPG
p257
sg7
g8
(S'\x07\xd9\x05\x08\x00\x01 \x00\x00\x00'
tRp258
sg10
V/home/paul/pics
p259
sg12
I00
sg13
V/home/paul/pics/IMG_0234.JPG
p260
sg15
F331923
sa(dp261
g5
VIMG_0215.jpg
p262
sg7
g8
(S'\x07\xd9\x05\x08\x00\x01\x14\x00\x00\x00'
tRp263
sg10
V/home/paul/pics
p264
sg12
I00
sg13
V/home/paul/pics/IMG_0215.jpg
p265
sg15
F46671
sa(dp266
g5
Vvalid-xhtml10.png
p267
sg7
g8
(S'\x07\xd9\x05\t\r\x07\x0f\x00\x00\x00'
tRp268
sg10
V/home/paul/pics
p269
sg12
I00
sg13
V/home/paul/pics/valid-xhtml10.png
p270
sg15
F2368
sa(dp271
g5
VIMG_0226.JPG
p272
sg7
g8
(S'\x07\xd9\x05\x08\x00\x01\x1f\x00\x00\x00'
tRp273
sg10
V/home/paul/pics
p274
sg12
I00
sg13
V/home/paul/pics/IMG_0226.JPG
p275
sg15
F650270
sa(dp276
g5
Vexpat.png
p277
sg7
g8
(S'\x07\xd9\x05\t\r\x07\x0f\x00\x00\x00'
tRp278
sg10
V/home/paul/pics
p279
sg12
I00
sg13
V/home/paul/pics/expat.png
p280
sg15
F1027
sa(dp281
g5
VIMG_0227.jpg
p282
sg7
g8
(S'\x07\xd9\x05\x08\x00\x01\x1f\x00\x00\x00'
tRp283
sg10
V/home/paul/pics
p284
sg12
I00
sg13
V/home/paul/pics/IMG_0227.jpg
p285
sg15
F59448
sa(dp286
g5
VIMG_0226.jpg
p287
sg7
g8
(S'\x07\xd9\x05\x08\x00\x01\x1d\x00\x00\x00'
tRp288
sg10
V/home/paul/pics
p289
sg12
I00
sg13
V/home/paul/pics/IMG_0226.jpg
p290
sg15
F51977
sasS'version'
p291
I126
sS'device_name'
p292
Vivo:8003
p293
s.