(dp1
S'files'
p2
(lp3
(dp4
S'name'
p5
V9b907fa289f0353a4a08829e46b627f135694f
p6
sS'mtime'
p7
cdatetime
datetime
p8
(S'\x07\xd9\x05\x08\x04\x13%\x00\x00\x00'
tRp9
sS'path'
p10
V/home/paul/dotconfigs/.git/objects/c9
p11
sS'gdocs_able_to_upload'
p12
I00
sS'full_path'
p13
V/home/paul/dotconfigs/.git/objects/c9/9b907fa289f0353a4a08829e46b627f135694f
p14
sS'size'
p15
F179
sa(dp16
g5
V3c9d5b05e496ad2e30306833c9653acde62d6c
p17
sg7
g8
(S'\x07\xd9\x05\x08\x04\x13"\x00\x00\x00'
tRp18
sg10
V/home/paul/dotconfigs/.git/objects/08
p19
sg12
I00
sg13
V/home/paul/dotconfigs/.git/objects/08/3c9d5b05e496ad2e30306833c9653acde62d6c
p20
sg15
F488
sa(dp21
g5
Vpack-31ead16845f362913f29d4949ccff5a453f55726.idx
p22
sg7
g8
(S'\x07\xd9\x05\x08\x00\x0b\x1c\x00\x00\x00'
tRp23
sg10
V/home/paul/dotconfigs/.git/objects/pack
p24
sg12
I00
sg13
V/home/paul/dotconfigs/.git/objects/pack/pack-31ead16845f362913f29d4949ccff5a453f55726.idx
p25
sg15
F2288
sa(dp26
g5
Vpack-31ead16845f362913f29d4949ccff5a453f55726.pack
p27
sg7
g8
(S'\x07\xd9\x05\x08\x00\x0b\x1c\x00\x00\x00'
tRp28
sg10
V/home/paul/dotconfigs/.git/objects/pack
p29
sg12
I00
sg13
V/home/paul/dotconfigs/.git/objects/pack/pack-31ead16845f362913f29d4949ccff5a453f55726.pack
p30
sg15
F6843
sa(dp31
g5
V0fbe8818cbabe17db6d42c6ed7b4f11c092ab2
p32
sg7
g8
(S'\x07\xd9\x05\x08\x04\x13.\x00\x00\x00'
tRp33
sg10
V/home/paul/dotconfigs/.git/objects/9c
p34
sg12
I00
sg13
V/home/paul/dotconfigs/.git/objects/9c/0fbe8818cbabe17db6d42c6ed7b4f11c092ab2
p35
sg15
F170
sa(dp36
g5
Vexclude
p37
sg7
g8
(S'\x07\xd9\x05\x08\x00\x0b\x0f\x00\x00\x00'
tRp38
sg10
V/home/paul/dotconfigs/.git/info
p39
sg12
I00
sg13
V/home/paul/dotconfigs/.git/info/exclude
p40
sg15
F240
sa(dp41
g5
VHEAD
p42
sg7
g8
(S'\x07\xd9\x05\x08\x00\x0b\x1c\x00\x00\x00'
tRp43
sg10
V/home/paul/dotconfigs/.git/logs/refs/remotes/origin
p44
sg12
I00
sg13
V/home/paul/dotconfigs/.git/logs/refs/remotes/origin/HEAD
p45
sg15
F173
sa(dp46
g5
Vmaster
p47
sg7
g8
(S'\x07\xd9\x05\x08\x04\x14\x01\x00\x00\x00'
tRp48
sg10
V/home/paul/dotconfigs/.git/logs/refs/remotes/origin
p49
sg12
I00
sg13
V/home/paul/dotconfigs/.git/logs/refs/remotes/origin/master
p50
sg15
F318
sa(dp51
g5
Vmaster
p52
sg7
g8
(S'\x07\xd9\x05\x08\x04\x13.\x00\x00\x00'
tRp53
sg10
V/home/paul/dotconfigs/.git/logs/refs/heads
p54
sg12
I00
sg13
V/home/paul/dotconfigs/.git/logs/refs/heads/master
p55
sg15
F345
sa(dp56
g5
VHEAD
p57
sg7
g8
(S'\x07\xd9\x05\x08\x00\x0b\x1c\x00\x00\x00'
tRp58
sg10
V/home/paul/dotconfigs/.git/refs/remotes/origin
p59
sg12
I00
sg13
V/home/paul/dotconfigs/.git/refs/remotes/origin/HEAD
p60
sg15
F32
sa(dp61
g5
Vmaster
p62
sg7
g8
(S'\x07\xd9\x05\x08\x04\x14\x01\x00\x00\x00'
tRp63
sg10
V/home/paul/dotconfigs/.git/refs/remotes/origin
p64
sg12
I00
sg13
V/home/paul/dotconfigs/.git/refs/remotes/origin/master
p65
sg15
F41
sa(dp66
g5
Vmaster
p67
sg7
g8
(S'\x07\xd9\x05\x08\x04\x13.\x00\x00\x00'
tRp68
sg10
V/home/paul/dotconfigs/.git/refs/heads
p69
sg12
I00
sg13
V/home/paul/dotconfigs/.git/refs/heads/master
p70
sg15
F41
sa(dp71
g5
Vprepare-commit-msg
p72
sg7
g8
(S'\x07\xd9\x05\x08\x00\x0b\x0f\x00\x00\x00'
tRp73
sg10
V/home/paul/dotconfigs/.git/hooks
p74
sg12
I00
sg13
V/home/paul/dotconfigs/.git/hooks/prepare-commit-msg
p75
sg15
F1196
sa(dp76
g5
Vpost-commit
p77
sg7
g8
(S'\x07\xd9\x05\x08\x00\x0b\x0f\x00\x00\x00'
tRp78
sg10
V/home/paul/dotconfigs/.git/hooks
p79
sg12
I00
sg13
V/home/paul/dotconfigs/.git/hooks/post-commit
p80
sg15
F152
sa(dp81
g5
Vupdate
p82
sg7
g8
(S'\x07\xd9\x05\x08\x00\x0b\x0f\x00\x00\x00'
tRp83
sg10
V/home/paul/dotconfigs/.git/hooks
p84
sg12
I00
sg13
V/home/paul/dotconfigs/.git/hooks/update
p85
sg15
F2910
sa(dp86
g5
Vcommit-msg
p87
sg7
g8
(S'\x07\xd9\x05\x08\x00\x0b\x0f\x00\x00\x00'
tRp88
sg10
V/home/paul/dotconfigs/.git/hooks
p89
sg12
I00
sg13
V/home/paul/dotconfigs/.git/hooks/commit-msg
p90
sg15
F887
sa(dp91
g5
Vpost-receive
p92
sg7
g8
(S'\x07\xd9\x05\x08\x00\x0b\x0f\x00\x00\x00'
tRp93
sg10
V/home/paul/dotconfigs/.git/hooks
p94
sg12
I00
sg13
V/home/paul/dotconfigs/.git/hooks/post-receive
p95
sg15
F510
sa(dp96
g5
Vpre-rebase
p97
sg7
g8
(S'\x07\xd9\x05\x08\x00\x0b\x0f\x00\x00\x00'
tRp98
sg10
V/home/paul/dotconfigs/.git/hooks
p99
sg12
I00
sg13
V/home/paul/dotconfigs/.git/hooks/pre-rebase
p100
sg15
F4262
sa(dp101
g5
Vpre-commit
p102
sg7
g8
(S'\x07\xd9\x05\x08\x00\x0b\x0f\x00\x00\x00'
tRp103
sg10
V/home/paul/dotconfigs/.git/hooks
p104
sg12
I00
sg13
V/home/paul/dotconfigs/.git/hooks/pre-commit
p105
sg15
F1706
sa(dp106
g5
Vpost-update
p107
sg7
g8
(S'\x07\xd9\x05\x08\x00\x0b\x0f\x00\x00\x00'
tRp108
sg10
V/home/paul/dotconfigs/.git/hooks
p109
sg12
I00
sg13
V/home/paul/dotconfigs/.git/hooks/post-update
p110
sg15
F207
sa(dp111
g5
Vapplypatch-msg
p112
sg7
g8
(S'\x07\xd9\x05\x08\x00\x0b\x0f\x00\x00\x00'
tRp113
sg10
V/home/paul/dotconfigs/.git/hooks
p114
sg12
I00
sg13
V/home/paul/dotconfigs/.git/hooks/applypatch-msg
p115
sg15
F441
sa(dp116
g5
Vpre-applypatch
p117
sg7
g8
(S'\x07\xd9\x05\x08\x00\x0b\x0f\x00\x00\x00'
tRp118
sg10
V/home/paul/dotconfigs/.git/hooks
p119
sg12
I00
sg13
V/home/paul/dotconfigs/.git/hooks/pre-applypatch
p120
sg15
F387
sasS'version'
p121
I124
sS'device_name'
p122
Vivo:8002
p123
s.