(dp1
S'files'
p2
(lp3
(dp4
S'name'
p5
V23
p6
sS'mtime'
p7
cdatetime
datetime
p8
(S'\x07\xd9\x05\x0c\x08.(\x00\x00\x00'
tRp9
sS'path'
p10
V/home/paul/test
p11
sS'gdocs_able_to_upload'
p12
I00
sS'full_path'
p13
V/home/paul/test/23
p14
sS'size'
p15
F0
sa(dp16
g5
V10
p17
sg7
g8
(S'\x07\xd9\x05\x0c\t\x088\x00\x00\x00'
tRp18
sg10
V/home/paul/test
p19
sg12
I00
sg13
V/home/paul/test/10
p20
sg15
F20480
sa(dp21
g5
V13
p22
sg7
g8
(S'\x07\xd9\x05\x0c\x08.(\x00\x00\x00'
tRp23
sg10
V/home/paul/test
p24
sg12
I00
sg13
V/home/paul/test/13
p25
sg15
F0
sa(dp26
g5
V4
sg7
g8
(S'\x07\xd9\x05\x0c\x08.(\x00\x00\x00'
tRp27
sg10
V/home/paul/test
p28
sg12
I00
sg13
V/home/paul/test/4
p29
sg15
F0
sa(dp30
g5
V21
p31
sg7
g8
(S'\x07\xd9\x05\x0c\t\x07,\x00\x00\x00'
tRp32
sg10
V/home/paul/test
p33
sg12
I00
sg13
V/home/paul/test/21
p34
sg15
F33
sa(dp35
g5
V26
p36
sg7
g8
(S'\x07\xd9\x05\x0c\x08.(\x00\x00\x00'
tRp37
sg10
V/home/paul/test
p38
sg12
I00
sg13
V/home/paul/test/26
p39
sg15
F0
sa(dp40
g5
V11
p41
sg7
g8
(S'\x07\xd9\x05\x0c\x08.(\x00\x00\x00'
tRp42
sg10
V/home/paul/test
p43
sg12
I00
sg13
V/home/paul/test/11
p44
sg15
F0
sa(dp45
g5
V29
p46
sg7
g8
(S'\x07\xd9\x05\x0c\x08.(\x00\x00\x00'
tRp47
sg10
V/home/paul/test
p48
sg12
I00
sg13
V/home/paul/test/29
p49
sg15
F0
sa(dp50
g5
V18
p51
sg7
g8
(S'\x07\xd9\x05\x0c\x08.(\x00\x00\x00'
tRp52
sg10
V/home/paul/test
p53
sg12
I00
sg13
V/home/paul/test/18
p54
sg15
F0
sa(dp55
g5
V2
sg7
g8
(S'\x07\xd9\x05\x0c\t\x07&\x00\x00\x00'
tRp56
sg10
V/home/paul/test
p57
sg12
I00
sg13
V/home/paul/test/2
p58
sg15
F11
sa(dp59
g5
V19
p60
sg7
g8
(S'\x07\xd9\x05\x0c\x08.(\x00\x00\x00'
tRp61
sg10
V/home/paul/test
p62
sg12
I00
sg13
V/home/paul/test/19
p63
sg15
F0
sa(dp64
g5
V5
sg7
g8
(S'\x07\xd9\x05\x0c\x08.(\x00\x00\x00'
tRp65
sg10
V/home/paul/test
p66
sg12
I00
sg13
V/home/paul/test/5
p67
sg15
F0
sa(dp68
g5
V30
p69
sg7
g8
(S'\x07\xd9\x05\x0c\x08.(\x00\x00\x00'
tRp70
sg10
V/home/paul/test
p71
sg12
I00
sg13
V/home/paul/test/30
p72
sg15
F0
sa(dp73
g5
V22
p74
sg7
g8
(S'\x07\xd9\x05\x0c\x08.(\x00\x00\x00'
tRp75
sg10
V/home/paul/test
p76
sg12
I00
sg13
V/home/paul/test/22
p77
sg15
F0
sa(dp78
g5
V27
p79
sg7
g8
(S'\x07\xd9\x05\x0c\x08.(\x00\x00\x00'
tRp80
sg10
V/home/paul/test
p81
sg12
I00
sg13
V/home/paul/test/27
p82
sg15
F0
sa(dp83
g5
V15
p84
sg7
g8
(S'\x07\xd9\x05\x0c\x08.(\x00\x00\x00'
tRp85
sg10
V/home/paul/test
p86
sg12
I00
sg13
V/home/paul/test/15
p87
sg15
F0
sa(dp88
g5
V20
p89
sg7
g8
(S'\x07\xd9\x05\x0c\x08.(\x00\x00\x00'
tRp90
sg10
V/home/paul/test
p91
sg12
I00
sg13
V/home/paul/test/20
p92
sg15
F0
sa(dp93
g5
V14
p94
sg7
g8
(S'\x07\xd9\x05\x0c\x08.(\x00\x00\x00'
tRp95
sg10
V/home/paul/test
p96
sg12
I00
sg13
V/home/paul/test/14
p97
sg15
F0
sa(dp98
g5
V28
p99
sg7
g8
(S'\x07\xd9\x05\x0c\x08.(\x00\x00\x00'
tRp100
sg10
V/home/paul/test
p101
sg12
I00
sg13
V/home/paul/test/28
p102
sg15
F0
sa(dp103
g5
V16
p104
sg7
g8
(S'\x07\xd9\x05\x0c\x08.(\x00\x00\x00'
tRp105
sg10
V/home/paul/test
p106
sg12
I00
sg13
V/home/paul/test/16
p107
sg15
F0
sa(dp108
g5
V12
p109
sg7
g8
(S'\x07\xd9\x05\x0c\t\x0c\x1e\x00\x00\x00'
tRp110
sg10
V/home/paul/test
p111
sg12
I00
sg13
V/home/paul/test/12
p112
sg15
F102400
sa(dp113
g5
V1
sg7
g8
(S'\x07\xd9\x05\x0c\t\x06\x0b\x00\x00\x00'
tRp114
sg10
V/home/paul/test
p115
sg12
I00
sg13
V/home/paul/test/1
p116
sg15
F0
sa(dp117
g5
V3
sg7
g8
(S'\x07\xd9\x05\x0c\x08.(\x00\x00\x00'
tRp118
sg10
V/home/paul/test
p119
sg12
I00
sg13
V/home/paul/test/3
p120
sg15
F0
sa(dp121
g5
V24
p122
sg7
g8
(S'\x07\xd9\x05\x0c\x08.(\x00\x00\x00'
tRp123
sg10
V/home/paul/test
p124
sg12
I00
sg13
V/home/paul/test/24
p125
sg15
F0
sa(dp126
g5
V17
p127
sg7
g8
(S'\x07\xd9\x05\x0c\x08.(\x00\x00\x00'
tRp128
sg10
V/home/paul/test
p129
sg12
I00
sg13
V/home/paul/test/17
p130
sg15
F0
sa(dp131
g5
V25
p132
sg7
g8
(S'\x07\xd9\x05\x0c\x08.(\x00\x00\x00'
tRp133
sg10
V/home/paul/test
p134
sg12
I00
sg13
V/home/paul/test/25
p135
sg15
F0
sasS'version'
p136
I229
sS'device_name'
p137
Vivo:8001
p138
s.