(dp1
S'files'
p2
(lp3
(dp4
S'name'
p5
VDVD_Rip2.jpg
p6
sS'mtime'
p7
cdatetime
datetime
p8
(S'\x07\xd8\x01\x10\x0f/\x0e\x00\x00\x00'
tRp9
sS'path'
p10
V/home/paul/shared/nmap.org/images/matrix
p11
sS'gdocs_able_to_upload'
p12
I00
sS'full_path'
p13
V/home/paul/shared/nmap.org/images/matrix/DVD_Rip2.jpg
p14
sS'size'
p15
F232250
sa(dp16
g5
Vtrin_hack_f_343x170.jpg
p17
sg7
g8
(S'\x07\xd8\x01\x10\x0f/\x0f\x00\x00\x00'
tRp18
sg10
V/home/paul/shared/nmap.org/images/matrix
p19
sg12
I00
sg13
V/home/paul/shared/nmap.org/images/matrix/trin_hack_f_343x170.jpg
p20
sg15
F17344
sa(dp21
g5
VDVD_Rip1.jpg
p22
sg7
g8
(S'\x07\xd8\x01\x10\x0f/\x0e\x00\x00\x00'
tRp23
sg10
V/home/paul/shared/nmap.org/images/matrix
p24
sg12
I00
sg13
V/home/paul/shared/nmap.org/images/matrix/DVD_Rip1.jpg
p25
sg15
F329816
sa(dp26
g5
VBattle_Royale_Nmap_br946.jpg
p27
sg7
g8
(S'\x07\xd8\x01\x10\x0f/\x0e\x00\x00\x00'
tRp28
sg10
V/home/paul/shared/nmap.org/images/matrix
p29
sg12
I00
sg13
V/home/paul/shared/nmap.org/images/matrix/Battle_Royale_Nmap_br946.jpg
p30
sg15
F21188
sa(dp31
g5
VBattle_Royale_Nmap_br943.jpg
p32
sg7
g8
(S'\x07\xd8\x01\x10\x0f/\x0e\x00\x00\x00'
tRp33
sg10
V/home/paul/shared/nmap.org/images/matrix
p34
sg12
I00
sg13
V/home/paul/shared/nmap.org/images/matrix/Battle_Royale_Nmap_br943.jpg
p35
sg15
F15832
sa(dp36
g5
Vnmap-matrix2log.jpg
p37
sg7
g8
(S'\x07\xd8\x01\x10\x0f/\x0e\x00\x00\x00'
tRp38
sg10
V/home/paul/shared/nmap.org/images/matrix
p39
sg12
I00
sg13
V/home/paul/shared/nmap.org/images/matrix/nmap-matrix2log.jpg
p40
sg15
F29661
sa(dp41
g5
Vtrinity_hacking_crop.jpg
p42
sg7
g8
(S'\x07\xd8\x01\x10\x0f/\x0e\x00\x00\x00'
tRp43
sg10
V/home/paul/shared/nmap.org/images/matrix
p44
sg12
I00
sg13
V/home/paul/shared/nmap.org/images/matrix/trinity_hacking_crop.jpg
p45
sg15
F13660
sa(dp46
g5
Vtrin_hack_f.jpg
p47
sg7
g8
(S'\x07\xd8\x01\x10\x0f/\x0f\x00\x00\x00'
tRp48
sg10
V/home/paul/shared/nmap.org/images/matrix
p49
sg12
I00
sg13
V/home/paul/shared/nmap.org/images/matrix/trin_hack_f.jpg
p50
sg15
F75076
sa(dp51
g5
Vtrin_type.jpg
p52
sg7
g8
(S'\x07\xd8\x01\x10\x0f/\x0e\x00\x00\x00'
tRp53
sg10
V/home/paul/shared/nmap.org/images/matrix
p54
sg12
I00
sg13
V/home/paul/shared/nmap.org/images/matrix/trin_type.jpg
p55
sg15
F70646
sa(dp56
g5
Vtrinity_hacking_mtx.jpg
p57
sg7
g8
(S'\x07\xd8\x01\x10\x0f/\x0f\x00\x00\x00'
tRp58
sg10
V/home/paul/shared/nmap.org/images/matrix
p59
sg12
I00
sg13
V/home/paul/shared/nmap.org/images/matrix/trinity_hacking_mtx.jpg
p60
sg15
F340225
sa(dp61
g5
Vtrinity_hacking_crop.jpg
p62
sg7
g8
(S'\x07\xd8\x01\x10\x0f/\x0e\x00\x00\x00'
tRp63
sg10
V/home/paul/shared/nmap.org/images/matrix
p64
sg12
I00
sg13
V/home/paul/shared/nmap.org/images/matrix/trinity_hacking_crop.jpg
p65
sg15
F13660
sa(dp66
g5
Vtrin_hack_f.jpg
p67
sg7
g8
(S'\x07\xd8\x01\x10\x0f/\x0f\x00\x00\x00'
tRp68
sg10
V/home/paul/shared/nmap.org/images/matrix
p69
sg12
I00
sg13
V/home/paul/shared/nmap.org/images/matrix/trin_hack_f.jpg
p70
sg15
F75076
sa(dp71
g5
Vtrin_type.jpg
p72
sg7
g8
(S'\x07\xd8\x01\x10\x0f/\x0e\x00\x00\x00'
tRp73
sg10
V/home/paul/shared/nmap.org/images/matrix
p74
sg12
I00
sg13
V/home/paul/shared/nmap.org/images/matrix/trin_type.jpg
p75
sg15
F70646
sa(dp76
g5
Vtrinity_hacking_mtx.jpg
p77
sg7
g8
(S'\x07\xd8\x01\x10\x0f/\x0f\x00\x00\x00'
tRp78
sg10
V/home/paul/shared/nmap.org/images/matrix
p79
sg12
I00
sg13
V/home/paul/shared/nmap.org/images/matrix/trinity_hacking_mtx.jpg
p80
sg15
F340225
sa(dp81
g5
VBattle-Royale-Nmap-2-344x214.jpg
p82
sg7
g8
(S'\x07\xd8\x03\x17\x12&5\x00\x00\x00'
tRp83
sg10
V/home/paul/shared/nmap.org/images/matrix
p84
sg12
I00
sg13
V/home/paul/shared/nmap.org/images/matrix/Battle-Royale-Nmap-2-344x214.jpg
p85
sg15
F15237
sa(dp86
g5
Vtrinity_armed_and_dangerous.jpg
p87
sg7
g8
(S'\x07\xd8\x01\x10\x0f/\x0e\x00\x00\x00'
tRp88
sg10
V/home/paul/shared/nmap.org/images/matrix
p89
sg12
I00
sg13
V/home/paul/shared/nmap.org/images/matrix/trinity_armed_and_dangerous.jpg
p90
sg15
F6272
sa(dp91
g5
VBattle-Royale-Nmap-1-344x214.jpg
p92
sg7
g8
(S'\x07\xd8\x03\x17\x12&5\x00\x00\x00'
tRp93
sg10
V/home/paul/shared/nmap.org/images/matrix
p94
sg12
I00
sg13
V/home/paul/shared/nmap.org/images/matrix/Battle-Royale-Nmap-1-344x214.jpg
p95
sg15
F21936
sa(dp96
g5
Vtrinity-hacking-hd-crop-960x728.jpg
p97
sg7
g8
(S'\x07\xd8\x07\x07\x013\x08\x00\x00\x00'
tRp98
sg10
V/home/paul/shared/nmap.org/images/matrix
p99
sg12
I00
sg13
V/home/paul/shared/nmap.org/images/matrix/trinity-hacking-hd-crop-960x728.jpg
p100
sg15
F81191
sa(dp101
g5
Vreload_nmap_f.jpg
p102
sg7
g8
(S'\x07\xd8\x01\x10\x0f/\x0f\x00\x00\x00'
tRp103
sg10
V/home/paul/shared/nmap.org/images/matrix
p104
sg12
I00
sg13
V/home/paul/shared/nmap.org/images/matrix/reload_nmap_f.jpg
p105
sg15
F97368
sa(dp106
g5
Vreload_nmap_c.jpg
p107
sg7
g8
(S'\x07\xd8\x01\x10\x0f/\x0f\x00\x00\x00'
tRp108
sg10
V/home/paul/shared/nmap.org/images/matrix
p109
sg12
I00
sg13
V/home/paul/shared/nmap.org/images/matrix/reload_nmap_c.jpg
p110
sg15
F91761
sa(dp111
g5
Vtrin_kick_ass.jpg
p112
sg7
g8
(S'\x07\xd8\x01\x10\x0f/\x0e\x00\x00\x00'
tRp113
sg10
V/home/paul/shared/nmap.org/images/matrix
p114
sg12
I00
sg13
V/home/paul/shared/nmap.org/images/matrix/trin_kick_ass.jpg
p115
sg15
F63563
sa(dp116
g5
Vtrinity-nmapscreen-hd-cropscale-418x250.jpg
p117
sg7
g8
(S'\x07\xd8\x07\x07\x02.\x15\x00\x00\x00'
tRp118
sg10
V/home/paul/shared/nmap.org/images/matrix
p119
sg12
I00
sg13
V/home/paul/shared/nmap.org/images/matrix/trinity-nmapscreen-hd-cropscale-418x250.jpg
p120
sg15
F36801
sa(dp121
g5
VNmap_Matrix_Screen_Huge.jpg
p122
sg7
g8
(S'\x07\xd8\x01\x10\x0f/\x0e\x00\x00\x00'
tRp123
sg10
V/home/paul/shared/nmap.org/images/matrix
p124
sg12
I00
sg13
V/home/paul/shared/nmap.org/images/matrix/Nmap_Matrix_Screen_Huge.jpg
p125
sg15
F519903
sa(dp126
g5
Vtrinity-hacking-hd-cropscale-302x250.jpg
p127
sg7
g8
(S'\x07\xd8\x07\x07\x02.\x15\x00\x00\x00'
tRp128
sg10
V/home/paul/shared/nmap.org/images/matrix
p129
sg12
I00
sg13
V/home/paul/shared/nmap.org/images/matrix/trinity-hacking-hd-cropscale-302x250.jpg
p130
sg15
F12901
sa(dp131
g5
VDVD_Rip4.jpg
p132
sg7
g8
(S'\x07\xd8\x01\x10\x0f/\x0e\x00\x00\x00'
tRp133
sg10
V/home/paul/shared/nmap.org/images/matrix
p134
sg12
I00
sg13
V/home/paul/shared/nmap.org/images/matrix/DVD_Rip4.jpg
p135
sg15
F315196
sa(dp136
g5
Vaccess_granted.jpg
p137
sg7
g8
(S'\x07\xd8\x01\x10\x0f/\x0e\x00\x00\x00'
tRp138
sg10
V/home/paul/shared/nmap.org/images/matrix
p139
sg12
I00
sg13
V/home/paul/shared/nmap.org/images/matrix/access_granted.jpg
p140
sg15
F38403
sa(dp141
g5
Vtrinity-nmapscreen-hd-crop-1200x728.jpg
p142
sg7
g8
(S'\x07\xd8\x07\x07\x013\x08\x00\x00\x00'
tRp143
sg10
V/home/paul/shared/nmap.org/images/matrix
p144
sg12
I00
sg13
V/home/paul/shared/nmap.org/images/matrix/trinity-nmapscreen-hd-crop-1200x728.jpg
p145
sg15
F171970
sa(dp146
g5
Vmatrix-poster-jsolomon-small.jpg
p147
sg7
g8
(S'\x07\xd8\x01\x10\x0f/\x0e\x00\x00\x00'
tRp148
sg10
V/home/paul/shared/nmap.org/images/matrix
p149
sg12
I00
sg13
V/home/paul/shared/nmap.org/images/matrix/matrix-poster-jsolomon-small.jpg
p150
sg15
F1164911
sa(dp151
g5
Vreload_nmap_f_crop_170_285.jpg
p152
sg7
g8
(S'\x07\xd8\x01\x10\x0f/\x0f\x00\x00\x00'
tRp153
sg10
V/home/paul/shared/nmap.org/images/matrix
p154
sg12
I00
sg13
V/home/paul/shared/nmap.org/images/matrix/reload_nmap_f_crop_170_285.jpg
p155
sg15
F22480
sa(dp156
g5
Vroot_trinity3.jpg
p157
sg7
g8
(S'\x07\xd8\x01\x10\x0f/\x0e\x00\x00\x00'
tRp158
sg10
V/home/paul/shared/nmap.org/images/matrix
p159
sg12
I00
sg13
V/home/paul/shared/nmap.org/images/matrix/root_trinity3.jpg
p160
sg15
F43191
sa(dp161
g5
VBattle-Royale-Nmap-2-344x214.jpg
p162
sg7
g8
(S'\x07\xd8\x03\x17\x12&5\x00\x00\x00'
tRp163
sg10
V/home/paul/shared/nmap.org/images/matrix
p164
sg12
I00
sg13
V/home/paul/shared/nmap.org/images/matrix/Battle-Royale-Nmap-2-344x214.jpg
p165
sg15
F15237
sa(dp166
g5
Vtrinity_armed_and_dangerous.jpg
p167
sg7
g8
(S'\x07\xd8\x01\x10\x0f/\x0e\x00\x00\x00'
tRp168
sg10
V/home/paul/shared/nmap.org/images/matrix
p169
sg12
I00
sg13
V/home/paul/shared/nmap.org/images/matrix/trinity_armed_and_dangerous.jpg
p170
sg15
F6272
sa(dp171
g5
VBattle-Royale-Nmap-1-344x214.jpg
p172
sg7
g8
(S'\x07\xd8\x03\x17\x12&5\x00\x00\x00'
tRp173
sg10
V/home/paul/shared/nmap.org/images/matrix
p174
sg12
I00
sg13
V/home/paul/shared/nmap.org/images/matrix/Battle-Royale-Nmap-1-344x214.jpg
p175
sg15
F21936
sa(dp176
g5
Vtrinity-hacking-hd-crop-960x728.jpg
p177
sg7
g8
(S'\x07\xd8\x07\x07\x013\x08\x00\x00\x00'
tRp178
sg10
V/home/paul/shared/nmap.org/images/matrix
p179
sg12
I00
sg13
V/home/paul/shared/nmap.org/images/matrix/trinity-hacking-hd-crop-960x728.jpg
p180
sg15
F81191
sa(dp181
g5
Vreload_nmap_f.jpg
p182
sg7
g8
(S'\x07\xd8\x01\x10\x0f/\x0f\x00\x00\x00'
tRp183
sg10
V/home/paul/shared/nmap.org/images/matrix
p184
sg12
I00
sg13
V/home/paul/shared/nmap.org/images/matrix/reload_nmap_f.jpg
p185
sg15
F97368
sa(dp186
g5
Vreload_nmap_c.jpg
p187
sg7
g8
(S'\x07\xd8\x01\x10\x0f/\x0f\x00\x00\x00'
tRp188
sg10
V/home/paul/shared/nmap.org/images/matrix
p189
sg12
I00
sg13
V/home/paul/shared/nmap.org/images/matrix/reload_nmap_c.jpg
p190
sg15
F91761
sa(dp191
g5
Vtrin_kick_ass.jpg
p192
sg7
g8
(S'\x07\xd8\x01\x10\x0f/\x0e\x00\x00\x00'
tRp193
sg10
V/home/paul/shared/nmap.org/images/matrix
p194
sg12
I00
sg13
V/home/paul/shared/nmap.org/images/matrix/trin_kick_ass.jpg
p195
sg15
F63563
sa(dp196
g5
Vtrinity-nmapscreen-hd-cropscale-418x250.jpg
p197
sg7
g8
(S'\x07\xd8\x07\x07\x02.\x15\x00\x00\x00'
tRp198
sg10
V/home/paul/shared/nmap.org/images/matrix
p199
sg12
I00
sg13
V/home/paul/shared/nmap.org/images/matrix/trinity-nmapscreen-hd-cropscale-418x250.jpg
p200
sg15
F36801
sa(dp201
g5
VNmap_Matrix_Screen_Huge.jpg
p202
sg7
g8
(S'\x07\xd8\x01\x10\x0f/\x0e\x00\x00\x00'
tRp203
sg10
V/home/paul/shared/nmap.org/images/matrix
p204
sg12
I00
sg13
V/home/paul/shared/nmap.org/images/matrix/Nmap_Matrix_Screen_Huge.jpg
p205
sg15
F519903
sa(dp206
g5
Vtrinity-hacking-hd-cropscale-302x250.jpg
p207
sg7
g8
(S'\x07\xd8\x07\x07\x02.\x15\x00\x00\x00'
tRp208
sg10
V/home/paul/shared/nmap.org/images/matrix
p209
sg12
I00
sg13
V/home/paul/shared/nmap.org/images/matrix/trinity-hacking-hd-cropscale-302x250.jpg
p210
sg15
F12901
sa(dp211
g5
VDVD_Rip4.jpg
p212
sg7
g8
(S'\x07\xd8\x01\x10\x0f/\x0e\x00\x00\x00'
tRp213
sg10
V/home/paul/shared/nmap.org/images/matrix
p214
sg12
I00
sg13
V/home/paul/shared/nmap.org/images/matrix/DVD_Rip4.jpg
p215
sg15
F315196
sa(dp216
g5
Vaccess_granted.jpg
p217
sg7
g8
(S'\x07\xd8\x01\x10\x0f/\x0e\x00\x00\x00'
tRp218
sg10
V/home/paul/shared/nmap.org/images/matrix
p219
sg12
I00
sg13
V/home/paul/shared/nmap.org/images/matrix/access_granted.jpg
p220
sg15
F38403
sa(dp221
g5
Vtrinity-nmapscreen-hd-crop-1200x728.jpg
p222
sg7
g8
(S'\x07\xd8\x07\x07\x013\x08\x00\x00\x00'
tRp223
sg10
V/home/paul/shared/nmap.org/images/matrix
p224
sg12
I00
sg13
V/home/paul/shared/nmap.org/images/matrix/trinity-nmapscreen-hd-crop-1200x728.jpg
p225
sg15
F171970
sa(dp226
g5
Vmatrix-poster-jsolomon-small.jpg
p227
sg7
g8
(S'\x07\xd8\x01\x10\x0f/\x0e\x00\x00\x00'
tRp228
sg10
V/home/paul/shared/nmap.org/images/matrix
p229
sg12
I00
sg13
V/home/paul/shared/nmap.org/images/matrix/matrix-poster-jsolomon-small.jpg
p230
sg15
F1164911
sa(dp231
g5
Vreload_nmap_f_crop_170_285.jpg
p232
sg7
g8
(S'\x07\xd8\x01\x10\x0f/\x0f\x00\x00\x00'
tRp233
sg10
V/home/paul/shared/nmap.org/images/matrix
p234
sg12
I00
sg13
V/home/paul/shared/nmap.org/images/matrix/reload_nmap_f_crop_170_285.jpg
p235
sg15
F22480
sa(dp236
g5
Vroot_trinity3.jpg
p237
sg7
g8
(S'\x07\xd8\x01\x10\x0f/\x0e\x00\x00\x00'
tRp238
sg10
V/home/paul/shared/nmap.org/images/matrix
p239
sg12
I00
sg13
V/home/paul/shared/nmap.org/images/matrix/root_trinity3.jpg
p240
sg15
F43191
sasS'version'
p241
I320
sS'device_name'
p242
Vivo:8000
p243
s.